; Function Attrs: mustprogress uwtable
define void @_ZN2cv7optflow25calcOpticalFlowSparseRLOFERKNS_11_InputArrayES3_S3_RKNS_17_InputOutputArrayERKNS_12_OutputArrayES9_NS_3PtrINS0_24RLOFOpticalFlowParameterEEEf(ptr noundef nonnull align 8 dereferenceable(24) %0, ptr noundef nonnull align 8 dereferenceable(24) %1, ptr noundef nonnull align 8 dereferenceable(24) %2, ptr noundef nonnull align 8 dereferenceable(24) %3, ptr noundef nonnull align 8 dereferenceable(24) %4, ptr noundef nonnull align 8 dereferenceable(24) %5, ptr noundef readonly captures(none) %6, float noundef %7) local_unnamed_addr #3 personality ptr @__gxx_personality_v0 {
  %9 = alloca %"struct.cv::Ptr.8", align 8
  %10 = alloca %"struct.cv::Ptr", align 8
  call void @llvm.lifetime.start.p0(i64 16, ptr nonnull %9) #27
  %11 = load ptr, ptr %6, align 8, !tbaa !25
  store ptr %11, ptr %10, align 8, !tbaa !25
  %12 = getelementptr inbounds nuw i8, ptr %10, i64 8
  %13 = getelementptr inbounds nuw i8, ptr %6, i64 8
  %14 = load ptr, ptr %13, align 8, !tbaa !31
  store ptr %14, ptr %12, align 8, !tbaa !31
  %.not.i.i.i.i = icmp eq ptr %14, null
  br i1 %.not.i.i.i.i, label %_ZN2cv3PtrINS_7optflow24RLOFOpticalFlowParameterEEC2ERKS3_.exit, label %15

15:                                               ; preds = %8
  %16 = getelementptr inbounds nuw i8, ptr %14, i64 8
  %17 = load i8, ptr @__libc_single_threaded, align 1, !tbaa !49
  %.not.i.i.i.i.i = icmp eq i8 %17, 0
  br i1 %.not.i.i.i.i.i, label %21, label %18

18:                                               ; preds = %15
  %19 = load i32, ptr %16, align 4, !tbaa !50
  %20 = add nsw i32 %19, 1
  store i32 %20, ptr %16, align 4, !tbaa !50
  br label %_ZN2cv3PtrINS_7optflow24RLOFOpticalFlowParameterEEC2ERKS3_.exit

21:                                               ; preds = %15
  %22 = atomicrmw volatile add ptr %16, i32 1 acq_rel, align 4
  br label %_ZN2cv3PtrINS_7optflow24RLOFOpticalFlowParameterEEC2ERKS3_.exit

_ZN2cv3PtrINS_7optflow24RLOFOpticalFlowParameterEEC2ERKS3_.exit: ; preds = %8, %18, %21
  invoke void @_ZN2cv7optflow21SparseRLOFOpticalFlow6createENS_3PtrINS0_24RLOFOpticalFlowParameterEEEf(ptr dead_on_unwind nonnull writable sret(%"struct.cv::Ptr.8") align 8 %9, ptr noundef nonnull %10, float noundef %7)
          to label %23 unwind label %74

23:                                               ; preds = %_ZN2cv3PtrINS_7optflow24RLOFOpticalFlowParameterEEC2ERKS3_.exit
  %24 = load ptr, ptr %12, align 8, !tbaa !31
  %.not.i.i = icmp eq ptr %24, null
  br i1 %.not.i.i, label %_ZNSt12__shared_ptrIN2cv7optflow24RLOFOpticalFlowParameterELN9__gnu_cxx12_Lock_policyE2EED2Ev.exit, label %25

25:                                               ; preds = %23
  %26 = getelementptr inbounds nuw i8, ptr %24, i64 8
  %27 = load atomic i64, ptr %26 acquire, align 8
  %28 = icmp eq i64 %27, 4294967297
  %29 = trunc i64 %27 to i32
  br i1 %28, label %30, label %38

30:                                               ; preds = %25
  store i32 0, ptr %26, align 8, !tbaa !32
  %31 = getelementptr inbounds nuw i8, ptr %24, i64 12
  store i32 0, ptr %31, align 4, !tbaa !34
  %32 = load ptr, ptr %24, align 8, !tbaa !35
  %33 = getelementptr inbounds nuw i8, ptr %32, i64 16
  %34 = load ptr, ptr %33, align 8
  call void %34(ptr noundef nonnull align 8 dereferenceable(16) %24) #27
  %35 = load ptr, ptr %24, align 8, !tbaa !35
  %36 = getelementptr inbounds nuw i8, ptr %35, i64 24
  %37 = load ptr, ptr %36, align 8
  call void %37(ptr noundef nonnull align 8 dereferenceable(16) %24) #27
  br label %_ZNSt12__shared_ptrIN2cv7optflow24RLOFOpticalFlowParameterELN9__gnu_cxx12_Lock_policyE2EED2Ev.exit

38:                                               ; preds = %25
  %39 = load i8, ptr @__libc_single_threaded, align 1, !tbaa !49
  %.not.i.i.i = icmp eq i8 %39, 0
  br i1 %.not.i.i.i, label %42, label %40

40:                                               ; preds = %38
  %41 = add nsw i32 %29, -1
  store i32 %41, ptr %26, align 4, !tbaa !50
  br label %_ZN9__gnu_cxx27__exchange_and_add_dispatchEPii.exit.i.i.i

42:                                               ; preds = %38
  %43 = atomicrmw volatile add ptr %26, i32 -1 acq_rel, align 4
  br label %_ZN9__gnu_cxx27__exchange_and_add_dispatchEPii.exit.i.i.i

_ZN9__gnu_cxx27__exchange_and_add_dispatchEPii.exit.i.i.i: ; preds = %42, %40
  %.0.i.i.i.i = phi i32 [ %29, %40 ], [ %43, %42 ]
  %44 = icmp eq i32 %.0.i.i.i.i, 1
  br i1 %44, label %45, label %_ZNSt12__shared_ptrIN2cv7optflow24RLOFOpticalFlowParameterELN9__gnu_cxx12_Lock_policyE2EED2Ev.exit, !prof !51

45:                                               ; preds = %_ZN9__gnu_cxx27__exchange_and_add_dispatchEPii.exit.i.i.i
  call void @_ZNSt16_Sp_counted_baseILN9__gnu_cxx12_Lock_policyE2EE24_M_release_last_use_coldEv(ptr noundef nonnull align 8 dereferenceable(16) %24) #27
  br label %_ZNSt12__shared_ptrIN2cv7optflow24RLOFOpticalFlowParameterELN9__gnu_cxx12_Lock_policyE2EED2Ev.exit

_ZNSt12__shared_ptrIN2cv7optflow24RLOFOpticalFlowParameterELN9__gnu_cxx12_Lock_policyE2EED2Ev.exit: ; preds = %23, %30, %_ZN9__gnu_cxx27__exchange_and_add_dispatchEPii.exit.i.i.i, %45
  %46 = load ptr, ptr %9, align 8, !tbaa !57
  %47 = load ptr, ptr %46, align 8, !tbaa !35
  %48 = getelementptr inbounds nuw i8, ptr %47, i64 64
  %49 = load ptr, ptr %48, align 8
  invoke void %49(ptr noundef nonnull align 8 dereferenceable(8) %46, ptr noundef nonnull align 8 dereferenceable(24) %0, ptr noundef nonnull align 8 dereferenceable(24) %1, ptr noundef nonnull align 8 dereferenceable(24) %2, ptr noundef nonnull align 8 dereferenceable(24) %3, ptr noundef nonnull align 8 dereferenceable(24) %4, ptr noundef nonnull align 8 dereferenceable(24) %5)
          to label %50 unwind label %76

50:                                               ; preds = %_ZNSt12__shared_ptrIN2cv7optflow24RLOFOpticalFlowParameterELN9__gnu_cxx12_Lock_policyE2EED2Ev.exit
  %51 = getelementptr inbounds nuw i8, ptr %9, i64 8
  %52 = load ptr, ptr %51, align 8, !tbaa !31
  %.not.i.i10 = icmp eq ptr %52, null
  br i1 %.not.i.i10, label %_ZNSt12__shared_ptrIN2cv7optflow21SparseRLOFOpticalFlowELN9__gnu_cxx12_Lock_policyE2EED2Ev.exit, label %53

53:                                               ; preds = %50
  %54 = getelementptr inbounds nuw i8, ptr %52, i64 8
  %55 = load atomic i64, ptr %54 acquire, align 8
  %56 = icmp eq i64 %55, 4294967297
  %57 = trunc i64 %55 to i32
  br i1 %56, label %58, label %66

58:                                               ; preds = %53
  store i32 0, ptr %54, align 8, !tbaa !32
  %59 = getelementptr inbounds nuw i8, ptr %52, i64 12
  store i32 0, ptr %59, align 4, !tbaa !34
  %60 = load ptr, ptr %52, align 8, !tbaa !35
  %61 = getelementptr inbounds nuw i8, ptr %60, i64 16
  %62 = load ptr, ptr %61, align 8
  call void %62(ptr noundef nonnull align 8 dereferenceable(16) %52) #27
  %63 = load ptr, ptr %52, align 8, !tbaa !35
  %64 = getelementptr inbounds nuw i8, ptr %63, i64 24
  %65 = load ptr, ptr %64, align 8
  call void %65(ptr noundef nonnull align 8 dereferenceable(16) %52) #27
  br label %_ZNSt12__shared_ptrIN2cv7optflow21SparseRLOFOpticalFlowELN9__gnu_cxx12_Lock_policyE2EED2Ev.exit

66:                                               ; preds = %53
  %67 = load i8, ptr @__libc_single_threaded, align 1, !tbaa !49
  %.not.i.i.i11 = icmp eq i8 %67, 0
  br i1 %.not.i.i.i11, label %70, label %68

68:                                               ; preds = %66
  %69 = add nsw i32 %57, -1
  store i32 %69, ptr %54, align 4, !tbaa !50
  br label %_ZN9__gnu_cxx27__exchange_and_add_dispatchEPii.exit.i.i.i12

70:                                               ; preds = %66
  %71 = atomicrmw volatile add ptr %54, i32 -1 acq_rel, align 4
  br label %_ZN9__gnu_cxx27__exchange_and_add_dispatchEPii.exit.i.i.i12

_ZN9__gnu_cxx27__exchange_and_add_dispatchEPii.exit.i.i.i12: ; preds = %70, %68
  %.0.i.i.i.i13 = phi i32 [ %57, %68 ], [ %71, %70 ]
  %72 = icmp eq i32 %.0.i.i.i.i13, 1
  br i1 %72, label %73, label %_ZNSt12__shared_ptrIN2cv7optflow21SparseRLOFOpticalFlowELN9__gnu_cxx12_Lock_policyE2EED2Ev.exit, !prof !51

73:                                               ; preds = %_ZN9__gnu_cxx27__exchange_and_add_dispatchEPii.exit.i.i.i12
  call void @_ZNSt16_Sp_counted_baseILN9__gnu_cxx12_Lock_policyE2EE24_M_release_last_use_coldEv(ptr noundef nonnull align 8 dereferenceable(16) %52) #27
  br label %_ZNSt12__shared_ptrIN2cv7optflow21SparseRLOFOpticalFlowELN9__gnu_cxx12_Lock_policyE2EED2Ev.exit

_ZNSt12__shared_ptrIN2cv7optflow21SparseRLOFOpticalFlowELN9__gnu_cxx12_Lock_policyE2EED2Ev.exit: ; preds = %50, %58, %_ZN9__gnu_cxx27__exchange_and_add_dispatchEPii.exit.i.i.i12, %73
  call void @llvm.lifetime.end.p0(i64 16, ptr nonnull %9) #27
  ret void

74:                                               ; preds = %_ZN2cv3PtrINS_7optflow24RLOFOpticalFlowParameterEEC2ERKS3_.exit
  %75 = landingpad { ptr, i32 }
          cleanup
  call void @_ZNSt12__shared_ptrIN2cv7optflow24RLOFOpticalFlowParameterELN9__gnu_cxx12_Lock_policyE2EED2Ev(ptr noundef nonnull align 8 dereferenceable(16) %10) #27
  br label %78

76:                                               ; preds = %_ZNSt12__shared_ptrIN2cv7optflow24RLOFOpticalFlowParameterELN9__gnu_cxx12_Lock_policyE2EED2Ev.exit
  %77 = landingpad { ptr, i32 }
          cleanup
  call void @_ZNSt12__shared_ptrIN2cv7optflow21SparseRLOFOpticalFlowELN9__gnu_cxx12_Lock_policyE2EED2Ev(ptr noundef nonnull align 8 dereferenceable(16) %9) #27
  br label %78

78:                                               ; preds = %76, %74
  %.pn = phi { ptr, i32 } [ %77, %76 ], [ %75, %74 ]
  call void @llvm.lifetime.end.p0(i64 16, ptr nonnull %9) #27
  resume { ptr, i32 } %.pn
}